; Function Attrs: nounwind uwtable
define void @b2DestroyShape(i64 %0, i1 noundef zeroext %1) local_unnamed_addr #0 {
  %.sroa.2.0.extract.shift = lshr i64 %0, 32
  %3 = trunc nuw i64 %.sroa.2.0.extract.shift to i32
  %4 = and i32 %3, 65535
  %5 = tail call ptr @b2GetWorldLocked(i32 noundef %4) #10
  %6 = icmp eq ptr %5, null
  br i1 %6, label %18, label %7

7:                                                ; preds = %2
  %8 = getelementptr i8, ptr %5, i64 1256
  %.val = load ptr, ptr %8, align 8, !tbaa !14
  %9 = shl i64 %0, 32
  %sext.i = add i64 %9, -4294967296
  %10 = ashr exact i64 %sext.i, 32
  %11 = getelementptr inbounds %struct.b2Shape, ptr %.val, i64 %10
  %12 = getelementptr inbounds nuw i8, ptr %5, i64 1032
  %13 = getelementptr inbounds nuw i8, ptr %11, i64 4
  %14 = load i32, ptr %13, align 4, !tbaa !34
  %.val10 = load ptr, ptr %12, align 8, !tbaa !35
  %15 = sext i32 %14 to i64
  %16 = getelementptr inbounds %struct.b2Body, ptr %.val10, i64 %15
  tail call fastcc void @b2DestroyShapeInternal(ptr noundef %5, ptr noundef %11, ptr noundef %16)
  br i1 %1, label %17, label %18

17:                                               ; preds = %7
  tail call void @b2UpdateBodyMassData(ptr noundef nonnull %5, ptr noundef %16) #10
  br label %18

18:                                               ; preds = %7, %17, %2
  ret void
}